; Function Attrs: mustprogress nounwind willreturn uwtable
define hidden void @python_hashlib_Hacl_Hash_Blake2s_free(ptr noundef captures(none) %0) local_unnamed_addr #13 {
  %.sroa.44.0..sroa_idx = getelementptr inbounds nuw i8, ptr %0, i64 8
  %.sroa.44.0.copyload = load ptr, ptr %.sroa.44.0..sroa_idx, align 8, !tbaa !12
  %.sroa.5.0..sroa_idx = getelementptr inbounds nuw i8, ptr %0, i64 16
  %.sroa.5.0.copyload = load ptr, ptr %.sroa.5.0..sroa_idx, align 8, !tbaa !12
  %.sroa.6.0..sroa_idx = getelementptr inbounds nuw i8, ptr %0, i64 24
  %.sroa.6.0.copyload = load ptr, ptr %.sroa.6.0..sroa_idx, align 8, !tbaa !15
  tail call void @free(ptr noundef %.sroa.44.0.copyload) #20
  tail call void @free(ptr noundef %.sroa.5.0.copyload) #20
  tail call void @free(ptr noundef %.sroa.6.0.copyload) #20
  tail call void @free(ptr noundef %0) #20
  ret void
}